target datalayout = "e-m:e-p270:32:32-p271:32:32-p272:64:64-i64:64-i128:128-f80:128-n8:16:32:64-S128"
target triple = "x86_64-pc-linux-gnu"

%"class.cv::Size_" = type { i32, i32 }
%"class.testing::internal::ParamGenerator" = type { %"class.testing::internal::linked_ptr" }
%"class.testing::internal::linked_ptr" = type { ptr, %"class.testing::internal::linked_ptr_internal" }
%"class.testing::internal::linked_ptr_internal" = type { ptr }
%"class.testing::internal::CartesianProductHolder2" = type { %"class.testing::internal::ValueArray5", %"class.testing::internal::ValueArray9" }
%"class.testing::internal::ValueArray5" = type { %"class.cv::Size_", %"class.cv::Size_", %"class.cv::Size_", %"class.cv::Size_", %"class.cv::Size_" }
%"class.testing::internal::ValueArray9" = type { i32, i32, i32, i32, i32, i32, i32, i32, i32 }

@_ZN4perfL6szQVGAE = internal global %"class.cv::Size_" zeroinitializer, align 4
@_ZN4perfL5szVGAE = internal global %"class.cv::Size_" zeroinitializer, align 4
@_ZN4perfL6sz720pE = internal global %"class.cv::Size_" zeroinitializer, align 4
@_ZN4perfL7sz1080pE = internal global %"class.cv::Size_" zeroinitializer, align 4
@_ZN4perfL5szODDE = internal global %"class.cv::Size_" zeroinitializer, align 4

; Function Attrs: mustprogress nounwind uwtable
define linkonce_odr hidden void @_ZN7testing8internal11ValueArray9IiiiiiiiiiEC2ERKS2_(ptr noundef nonnull align 4 dereferenceable(36) %0, ptr noundef nonnull align 4 dereferenceable(36) %1) unnamed_addr #9 comdat align 2 {
  %3 = alloca ptr, align 8
  %4 = alloca ptr, align 8
  store ptr %0, ptr %3, align 8, !tbaa !254
  store ptr %1, ptr %4, align 8, !tbaa !254
  %5 = load ptr, ptr %3, align 8
  %6 = getelementptr inbounds nuw %"class.testing::internal::ValueArray9", ptr %5, i32 0, i32 0
  %7 = load ptr, ptr %4, align 8, !tbaa !254
  %8 = getelementptr inbounds nuw %"class.testing::internal::ValueArray9", ptr %7, i32 0, i32 0
  %9 = load i32, ptr %8, align 4, !tbaa !258
  store i32 %9, ptr %6, align 4, !tbaa !258
  %10 = getelementptr inbounds nuw %"class.testing::internal::ValueArray9", ptr %5, i32 0, i32 1
  %11 = load ptr, ptr %4, align 8, !tbaa !254
  %12 = getelementptr inbounds nuw %"class.testing::internal::ValueArray9", ptr %11, i32 0, i32 1
  %13 = load i32, ptr %12, align 4, !tbaa !260
  store i32 %13, ptr %10, align 4, !tbaa !260
  %14 = getelementptr inbounds nuw %"class.testing::internal::ValueArray9", ptr %5, i32 0, i32 2
  %15 = load ptr, ptr %4, align 8, !tbaa !254
  %16 = getelementptr inbounds nuw %"class.testing::internal::ValueArray9", ptr %15, i32 0, i32 2
  %17 = load i32, ptr %16, align 4, !tbaa !261
  store i32 %17, ptr %14, align 4, !tbaa !261
  %18 = getelementptr inbounds nuw %"class.testing::internal::ValueArray9", ptr %5, i32 0, i32 3
  %19 = load ptr, ptr %4, align 8, !tbaa !254
  %20 = getelementptr inbounds nuw %"class.testing::internal::ValueArray9", ptr %19, i32 0, i32 3
  %21 = load i32, ptr %20, align 4, !tbaa !262
  store i32 %21, ptr %18, align 4, !tbaa !262
  %22 = getelementptr inbounds nuw %"class.testing::internal::ValueArray9", ptr %5, i32 0, i32 4
  %23 = load ptr, ptr %4, align 8, !tbaa !254
  %24 = getelementptr inbounds nuw %"class.testing::internal::ValueArray9", ptr %23, i32 0, i32 4
  %25 = load i32, ptr %24, align 4, !tbaa !263
  store i32 %25, ptr %22, align 4, !tbaa !263
  %26 = getelementptr inbounds nuw %"class.testing::internal::ValueArray9", ptr %5, i32 0, i32 5
  %27 = load ptr, ptr %4, align 8, !tbaa !254
  %28 = getelementptr inbounds nuw %"class.testing::internal::ValueArray9", ptr %27, i32 0, i32 5
  %29 = load i32, ptr %28, align 4, !tbaa !264
  store i32 %29, ptr %26, align 4, !tbaa !264
  %30 = getelementptr inbounds nuw %"class.testing::internal::ValueArray9", ptr %5, i32 0, i32 6
  %31 = load ptr, ptr %4, align 8, !tbaa !254
  %32 = getelementptr inbounds nuw %"class.testing::internal::ValueArray9", ptr %31, i32 0, i32 6
  %33 = load i32, ptr %32, align 4, !tbaa !265
  store i32 %33, ptr %30, align 4, !tbaa !265
  %34 = getelementptr inbounds nuw %"class.testing::internal::ValueArray9", ptr %5, i32 0, i32 7
  %35 = load ptr, ptr %4, align 8, !tbaa !254
  %36 = getelementptr inbounds nuw %"class.testing::internal::ValueArray9", ptr %35, i32 0, i32 7
  %37 = load i32, ptr %36, align 4, !tbaa !266
  store i32 %37, ptr %34, align 4, !tbaa !266
  %38 = getelementptr inbounds nuw %"class.testing::internal::ValueArray9", ptr %5, i32 0, i32 8
  %39 = load ptr, ptr %4, align 8, !tbaa !254
  %40 = getelementptr inbounds nuw %"class.testing::internal::ValueArray9", ptr %39, i32 0, i32 8
  %41 = load i32, ptr %40, align 4, !tbaa !267
  store i32 %41, ptr %38, align 4, !tbaa !267
  ret void
}

; Function Attrs: mustprogress nounwind uwtable
define linkonce_odr hidden void @_ZN7testing8internal11ValueArray5IN2cv5Size_IiEES4_S4_S4_S4_EC2ERKS5_(ptr noundef nonnull align 4 dereferenceable(40) %0, ptr noundef nonnull align 4 dereferenceable(40) %1) unnamed_addr #9 comdat align 2 {
  %3 = alloca ptr, align 8
  %4 = alloca ptr, align 8
  store ptr %0, ptr %3, align 8, !tbaa !252
  store ptr %1, ptr %4, align 8, !tbaa !252
  %5 = load ptr, ptr %3, align 8
  %6 = getelementptr inbounds nuw %"class.testing::internal::ValueArray5", ptr %5, i32 0, i32 0
  %7 = load ptr, ptr %4, align 8, !tbaa !252
  %8 = getelementptr inbounds nuw %"class.testing::internal::ValueArray5", ptr %7, i32 0, i32 0
  call void @llvm.memcpy.p0.p0.i64(ptr align 4 %6, ptr align 4 %8, i64 8, i1 false), !tbaa.struct !73
  %9 = getelementptr inbounds nuw %"class.testing::internal::ValueArray5", ptr %5, i32 0, i32 1
  %10 = load ptr, ptr %4, align 8, !tbaa !252
  %11 = getelementptr inbounds nuw %"class.testing::internal::ValueArray5", ptr %10, i32 0, i32 1
  call void @llvm.memcpy.p0.p0.i64(ptr align 4 %9, ptr align 4 %11, i64 8, i1 false), !tbaa.struct !73
  %12 = getelementptr inbounds nuw %"class.testing::internal::ValueArray5", ptr %5, i32 0, i32 2
  %13 = load ptr, ptr %4, align 8, !tbaa !252
  %14 = getelementptr inbounds nuw %"class.testing::internal::ValueArray5", ptr %13, i32 0, i32 2
  call void @llvm.memcpy.p0.p0.i64(ptr align 4 %12, ptr align 4 %14, i64 8, i1 false), !tbaa.struct !73
  %15 = getelementptr inbounds nuw %"class.testing::internal::ValueArray5", ptr %5, i32 0, i32 3
  %16 = load ptr, ptr %4, align 8, !tbaa !252
  %17 = getelementptr inbounds nuw %"class.testing::internal::ValueArray5", ptr %16, i32 0, i32 3
  call void @llvm.memcpy.p0.p0.i64(ptr align 4 %15, ptr align 4 %17, i64 8, i1 false), !tbaa.struct !73
  %18 = getelementptr inbounds nuw %"class.testing::internal::ValueArray5", ptr %5, i32 0, i32 4
  %19 = load ptr, ptr %4, align 8, !tbaa !252
  %20 = getelementptr inbounds nuw %"class.testing::internal::ValueArray5", ptr %19, i32 0, i32 4
  call void @llvm.memcpy.p0.p0.i64(ptr align 4 %18, ptr align 4 %20, i64 8, i1 false), !tbaa.struct !73
  ret void
}

; Function Attrs: mustprogress uwtable
define linkonce_odr hidden void @_ZN7testing8internal23CartesianProductHolder2INS0_11ValueArray5IN2cv5Size_IiEES5_S5_S5_S5_EENS0_11ValueArray9IiiiiiiiiiEEEC2ERKS6_RKS8_(ptr noundef nonnull align 4 dereferenceable(76) %0, ptr noundef nonnull align 4 dereferenceable(40) %1, ptr noundef nonnull align 4 dereferenceable(36) %2) unnamed_addr #6 comdat align 2 {
  %4 = alloca ptr, align 8
  %5 = alloca ptr, align 8
  %6 = alloca ptr, align 8
  store ptr %0, ptr %4, align 8, !tbaa !256
  store ptr %1, ptr %5, align 8, !tbaa !252
  store ptr %2, ptr %6, align 8, !tbaa !254
  %7 = load ptr, ptr %4, align 8
  %8 = getelementptr inbounds nuw %"class.testing::internal::CartesianProductHolder2", ptr %7, i32 0, i32 0
  %9 = load ptr, ptr %5, align 8, !tbaa !252
  call void @_ZN7testing8internal11ValueArray5IN2cv5Size_IiEES4_S4_S4_S4_EC2ERKS5_(ptr noundef nonnull align 4 dereferenceable(40) %8, ptr noundef nonnull align 4 dereferenceable(40) %9)
  %10 = getelementptr inbounds nuw %"class.testing::internal::CartesianProductHolder2", ptr %7, i32 0, i32 1
  %11 = load ptr, ptr %6, align 8, !tbaa !254
  call void @_ZN7testing8internal11ValueArray9IiiiiiiiiiEC2ERKS2_(ptr noundef nonnull align 4 dereferenceable(36) %10, ptr noundef nonnull align 4 dereferenceable(36) %11)
  ret void
}

; Function Attrs: mustprogress nounwind uwtable
define linkonce_odr hidden void @_ZN7testing8internal11ValueArray9IiiiiiiiiiEC2Eiiiiiiiii(ptr noundef nonnull align 4 dereferenceable(36) %0, i32 noundef %1, i32 noundef %2, i32 noundef %3, i32 noundef %4, i32 noundef %5, i32 noundef %6, i32 noundef %7, i32 noundef %8, i32 noundef %9) unnamed_addr #9 comdat align 2 {
  %11 = alloca ptr, align 8
  %12 = alloca i32, align 4
  %13 = alloca i32, align 4
  %14 = alloca i32, align 4
  %15 = alloca i32, align 4
  %16 = alloca i32, align 4
  %17 = alloca i32, align 4
  %18 = alloca i32, align 4
  %19 = alloca i32, align 4
  %20 = alloca i32, align 4
  store ptr %0, ptr %11, align 8, !tbaa !254
  store i32 %1, ptr %12, align 4, !tbaa !9
  store i32 %2, ptr %13, align 4, !tbaa !9
  store i32 %3, ptr %14, align 4, !tbaa !9
  store i32 %4, ptr %15, align 4, !tbaa !9
  store i32 %5, ptr %16, align 4, !tbaa !9
  store i32 %6, ptr %17, align 4, !tbaa !9
  store i32 %7, ptr %18, align 4, !tbaa !9
  store i32 %8, ptr %19, align 4, !tbaa !9
  store i32 %9, ptr %20, align 4, !tbaa !9
  %21 = load ptr, ptr %11, align 8
  %22 = getelementptr inbounds nuw %"class.testing::internal::ValueArray9", ptr %21, i32 0, i32 0
  %23 = load i32, ptr %12, align 4, !tbaa !9
  store i32 %23, ptr %22, align 4, !tbaa !258
  %24 = getelementptr inbounds nuw %"class.testing::internal::ValueArray9", ptr %21, i32 0, i32 1
  %25 = load i32, ptr %13, align 4, !tbaa !9
  store i32 %25, ptr %24, align 4, !tbaa !260
  %26 = getelementptr inbounds nuw %"class.testing::internal::ValueArray9", ptr %21, i32 0, i32 2
  %27 = load i32, ptr %14, align 4, !tbaa !9
  store i32 %27, ptr %26, align 4, !tbaa !261
  %28 = getelementptr inbounds nuw %"class.testing::internal::ValueArray9", ptr %21, i32 0, i32 3
  %29 = load i32, ptr %15, align 4, !tbaa !9
  store i32 %29, ptr %28, align 4, !tbaa !262
  %30 = getelementptr inbounds nuw %"class.testing::internal::ValueArray9", ptr %21, i32 0, i32 4
  %31 = load i32, ptr %16, align 4, !tbaa !9
  store i32 %31, ptr %30, align 4, !tbaa !263
  %32 = getelementptr inbounds nuw %"class.testing::internal::ValueArray9", ptr %21, i32 0, i32 5
  %33 = load i32, ptr %17, align 4, !tbaa !9
  store i32 %33, ptr %32, align 4, !tbaa !264
  %34 = getelementptr inbounds nuw %"class.testing::internal::ValueArray9", ptr %21, i32 0, i32 6
  %35 = load i32, ptr %18, align 4, !tbaa !9
  store i32 %35, ptr %34, align 4, !tbaa !265
  %36 = getelementptr inbounds nuw %"class.testing::internal::ValueArray9", ptr %21, i32 0, i32 7
  %37 = load i32, ptr %19, align 4, !tbaa !9
  store i32 %37, ptr %36, align 4, !tbaa !266
  %38 = getelementptr inbounds nuw %"class.testing::internal::ValueArray9", ptr %21, i32 0, i32 8
  %39 = load i32, ptr %20, align 4, !tbaa !9
  store i32 %39, ptr %38, align 4, !tbaa !267
  ret void
}

; Function Attrs: mustprogress nounwind uwtable
define linkonce_odr hidden void @_ZN7testing8internal11ValueArray5IN2cv5Size_IiEES4_S4_S4_S4_EC2ES4_S4_S4_S4_S4_(ptr noundef nonnull align 4 dereferenceable(40) %0, i64 %1, i64 %2, i64 %3, i64 %4, i64 %5) unnamed_addr #9 comdat align 2 {
  %7 = alloca %"class.cv::Size_", align 4
  %8 = alloca %"class.cv::Size_", align 4
  %9 = alloca %"class.cv::Size_", align 4
  %10 = alloca %"class.cv::Size_", align 4
  %11 = alloca %"class.cv::Size_", align 4
  %12 = alloca ptr, align 8
  store i64 %1, ptr %7, align 4
  store i64 %2, ptr %8, align 4
  store i64 %3, ptr %9, align 4
  store i64 %4, ptr %10, align 4
  store i64 %5, ptr %11, align 4
  store ptr %0, ptr %12, align 8, !tbaa !252
  %13 = load ptr, ptr %12, align 8
  %14 = getelementptr inbounds nuw %"class.testing::internal::ValueArray5", ptr %13, i32 0, i32 0
  call void @llvm.memcpy.p0.p0.i64(ptr align 4 %14, ptr align 4 %7, i64 8, i1 false), !tbaa.struct !73
  %15 = getelementptr inbounds nuw %"class.testing::internal::ValueArray5", ptr %13, i32 0, i32 1
  call void @llvm.memcpy.p0.p0.i64(ptr align 4 %15, ptr align 4 %8, i64 8, i1 false), !tbaa.struct !73
  %16 = getelementptr inbounds nuw %"class.testing::internal::ValueArray5", ptr %13, i32 0, i32 2
  call void @llvm.memcpy.p0.p0.i64(ptr align 4 %16, ptr align 4 %9, i64 8, i1 false), !tbaa.struct !73
  %17 = getelementptr inbounds nuw %"class.testing::internal::ValueArray5", ptr %13, i32 0, i32 3
  call void @llvm.memcpy.p0.p0.i64(ptr align 4 %17, ptr align 4 %10, i64 8, i1 false), !tbaa.struct !73
  %18 = getelementptr inbounds nuw %"class.testing::internal::ValueArray5", ptr %13, i32 0, i32 4
  call void @llvm.memcpy.p0.p0.i64(ptr align 4 %18, ptr align 4 %11, i64 8, i1 false), !tbaa.struct !73
  ret void
}

; Function Attrs: mustprogress uwtable
define linkonce_odr hidden void @_ZN7testing7CombineINS_8internal11ValueArray5IN2cv5Size_IiEES5_S5_S5_S5_EENS1_11ValueArray9IiiiiiiiiiEEEENS1_23CartesianProductHolder2IT_T0_EERKSA_RKSB_(ptr dead_on_unwind noalias writable sret(%"class.testing::internal::CartesianProductHolder2") align 4 %0, ptr noundef nonnull align 4 dereferenceable(40) %1, ptr noundef nonnull align 4 dereferenceable(36) %2) #6 comdat {
  %4 = alloca ptr, align 8
  %5 = alloca ptr, align 8
  %6 = alloca ptr, align 8
  store ptr %0, ptr %4, align 8
  store ptr %1, ptr %5, align 8, !tbaa !252
  store ptr %2, ptr %6, align 8, !tbaa !254
  %7 = load ptr, ptr %5, align 8, !tbaa !252
  %8 = load ptr, ptr %6, align 8, !tbaa !254
  call void @_ZN7testing8internal23CartesianProductHolder2INS0_11ValueArray5IN2cv5Size_IiEES5_S5_S5_S5_EENS0_11ValueArray9IiiiiiiiiiEEEC2ERKS6_RKS8_(ptr noundef nonnull align 4 dereferenceable(76) %0, ptr noundef nonnull align 4 dereferenceable(40) %7, ptr noundef nonnull align 4 dereferenceable(36) %8)
  ret void
}

; Function Attrs: mustprogress uwtable
define linkonce_odr hidden void @_ZN7testing6ValuesIiiiiiiiiiEENS_8internal11ValueArray9IT_T0_T1_T2_T3_T4_T5_T6_T7_EES3_S4_S5_S6_S7_S8_S9_SA_SB_(ptr dead_on_unwind noalias writable sret(%"class.testing::internal::ValueArray9") align 4 %0, i32 noundef %1, i32 noundef %2, i32 noundef %3, i32 noundef %4, i32 noundef %5, i32 noundef %6, i32 noundef %7, i32 noundef %8, i32 noundef %9) #6 comdat {
  %11 = alloca ptr, align 8
  %12 = alloca i32, align 4
  %13 = alloca i32, align 4
  %14 = alloca i32, align 4
  %15 = alloca i32, align 4
  %16 = alloca i32, align 4
  %17 = alloca i32, align 4
  %18 = alloca i32, align 4
  %19 = alloca i32, align 4
  %20 = alloca i32, align 4
  store ptr %0, ptr %11, align 8
  store i32 %1, ptr %12, align 4, !tbaa !9
  store i32 %2, ptr %13, align 4, !tbaa !9
  store i32 %3, ptr %14, align 4, !tbaa !9
  store i32 %4, ptr %15, align 4, !tbaa !9
  store i32 %5, ptr %16, align 4, !tbaa !9
  store i32 %6, ptr %17, align 4, !tbaa !9
  store i32 %7, ptr %18, align 4, !tbaa !9
  store i32 %8, ptr %19, align 4, !tbaa !9
  store i32 %9, ptr %20, align 4, !tbaa !9
  %21 = load i32, ptr %12, align 4, !tbaa !9
  %22 = load i32, ptr %13, align 4, !tbaa !9
  %23 = load i32, ptr %14, align 4, !tbaa !9
  %24 = load i32, ptr %15, align 4, !tbaa !9
  %25 = load i32, ptr %16, align 4, !tbaa !9
  %26 = load i32, ptr %17, align 4, !tbaa !9
  %27 = load i32, ptr %18, align 4, !tbaa !9
  %28 = load i32, ptr %19, align 4, !tbaa !9
  %29 = load i32, ptr %20, align 4, !tbaa !9
  call void @_ZN7testing8internal11ValueArray9IiiiiiiiiiEC2Eiiiiiiiii(ptr noundef nonnull align 4 dereferenceable(36) %0, i32 noundef %21, i32 noundef %22, i32 noundef %23, i32 noundef %24, i32 noundef %25, i32 noundef %26, i32 noundef %27, i32 noundef %28, i32 noundef %29)
  ret void
}

; Function Attrs: mustprogress uwtable
define linkonce_odr hidden void @_ZN7testing6ValuesIN2cv5Size_IiEES3_S3_S3_S3_EENS_8internal11ValueArray5IT_T0_T1_T2_T3_EES6_S7_S8_S9_SA_(ptr dead_on_unwind noalias writable sret(%"class.testing::internal::ValueArray5") align 4 %0, i64 %1, i64 %2, i64 %3, i64 %4, i64 %5) #6 comdat {
  %7 = alloca ptr, align 8
  %8 = alloca %"class.cv::Size_", align 4
  %9 = alloca %"class.cv::Size_", align 4
  %10 = alloca %"class.cv::Size_", align 4
  %11 = alloca %"class.cv::Size_", align 4
  %12 = alloca %"class.cv::Size_", align 4
  %13 = alloca %"class.cv::Size_", align 4
  %14 = alloca %"class.cv::Size_", align 4
  %15 = alloca %"class.cv::Size_", align 4
  %16 = alloca %"class.cv::Size_", align 4
  %17 = alloca %"class.cv::Size_", align 4
  store ptr %0, ptr %7, align 8
  store i64 %1, ptr %8, align 4
  store i64 %2, ptr %9, align 4
  store i64 %3, ptr %10, align 4
  store i64 %4, ptr %11, align 4
  store i64 %5, ptr %12, align 4
  call void @llvm.memcpy.p0.p0.i64(ptr align 4 %13, ptr align 4 %8, i64 8, i1 false), !tbaa.struct !73
  call void @llvm.memcpy.p0.p0.i64(ptr align 4 %14, ptr align 4 %9, i64 8, i1 false), !tbaa.struct !73
  call void @llvm.memcpy.p0.p0.i64(ptr align 4 %15, ptr align 4 %10, i64 8, i1 false), !tbaa.struct !73
  call void @llvm.memcpy.p0.p0.i64(ptr align 4 %16, ptr align 4 %11, i64 8, i1 false), !tbaa.struct !73
  call void @llvm.memcpy.p0.p0.i64(ptr align 4 %17, ptr align 4 %12, i64 8, i1 false), !tbaa.struct !73
  %18 = load i64, ptr %13, align 4
  %19 = load i64, ptr %14, align 4
  %20 = load i64, ptr %15, align 4
  %21 = load i64, ptr %16, align 4
  %22 = load i64, ptr %17, align 4
  call void @_ZN7testing8internal11ValueArray5IN2cv5Size_IiEES4_S4_S4_S4_EC2ES4_S4_S4_S4_S4_(ptr noundef nonnull align 4 dereferenceable(40) %0, i64 %18, i64 %19, i64 %20, i64 %21, i64 %22)
  ret void
}

; Function Attrs: mustprogress uwtable
define internal void @_ZN11opencv_testL41gtest_Size_MatType_pyrDown_EvalGenerator_Ev(ptr dead_on_unwind noalias writable sret(%"class.testing::internal::ParamGenerator") align 8 %0) #6 {
  %2 = alloca ptr, align 8
  %3 = alloca %"class.testing::internal::CartesianProductHolder2", align 4
  %4 = alloca %"class.testing::internal::ValueArray5", align 4
  %5 = alloca %"class.cv::Size_", align 4
  %6 = alloca %"class.cv::Size_", align 4
  %7 = alloca %"class.cv::Size_", align 4
  %8 = alloca %"class.cv::Size_", align 4
  %9 = alloca %"class.cv::Size_", align 4
  %10 = alloca %"class.testing::internal::ValueArray9", align 4
  store ptr %0, ptr %2, align 8
  call void @llvm.lifetime.start.p0(i64 76, ptr %3) #3
  call void @llvm.lifetime.start.p0(i64 40, ptr %4) #3
  call void @llvm.memcpy.p0.p0.i64(ptr align 4 %5, ptr align 4 @_ZN4perfL7sz1080pE, i64 8, i1 false), !tbaa.struct !73
  call void @llvm.memcpy.p0.p0.i64(ptr align 4 %6, ptr align 4 @_ZN4perfL6sz720pE, i64 8, i1 false), !tbaa.struct !73
  call void @llvm.memcpy.p0.p0.i64(ptr align 4 %7, ptr align 4 @_ZN4perfL5szVGAE, i64 8, i1 false), !tbaa.struct !73
  call void @llvm.memcpy.p0.p0.i64(ptr align 4 %8, ptr align 4 @_ZN4perfL6szQVGAE, i64 8, i1 false), !tbaa.struct !73
  call void @llvm.memcpy.p0.p0.i64(ptr align 4 %9, ptr align 4 @_ZN4perfL5szODDE, i64 8, i1 false), !tbaa.struct !73
  %11 = load i64, ptr %5, align 4
  %12 = load i64, ptr %6, align 4
  %13 = load i64, ptr %7, align 4
  %14 = load i64, ptr %8, align 4
  %15 = load i64, ptr %9, align 4
  call void @_ZN7testing6ValuesIN2cv5Size_IiEES3_S3_S3_S3_EENS_8internal11ValueArray5IT_T0_T1_T2_T3_EES6_S7_S8_S9_SA_(ptr dead_on_unwind writable sret(%"class.testing::internal::ValueArray5") align 4 %4, i64 %11, i64 %12, i64 %13, i64 %14, i64 %15)
  call void @llvm.lifetime.start.p0(i64 36, ptr %10) #3
  call void @_ZN7testing6ValuesIiiiiiiiiiEENS_8internal11ValueArray9IT_T0_T1_T2_T3_T4_T5_T6_T7_EES3_S4_S5_S6_S7_S8_S9_SA_SB_(ptr dead_on_unwind writable sret(%"class.testing::internal::ValueArray9") align 4 %10, i32 noundef 0, i32 noundef 16, i32 noundef 24, i32 noundef 3, i32 noundef 19, i32 noundef 27, i32 noundef 5, i32 noundef 21, i32 noundef 29)
  call void @_ZN7testing7CombineINS_8internal11ValueArray5IN2cv5Size_IiEES5_S5_S5_S5_EENS1_11ValueArray9IiiiiiiiiiEEEENS1_23CartesianProductHolder2IT_T0_EERKSA_RKSB_(ptr dead_on_unwind writable sret(%"class.testing::internal::CartesianProductHolder2") align 4 %3, ptr noundef nonnull align 4 dereferenceable(40) %4, ptr noundef nonnull align 4 dereferenceable(36) %10)
  call void @_ZNK7testing8internal23CartesianProductHolder2INS0_11ValueArray5IN2cv5Size_IiEES5_S5_S5_S5_EENS0_11ValueArray9IiiiiiiiiiEEEcvNS0_14ParamGeneratorISt5tupleIJT_T0_EEEEIS5_N4perf7MatTypeEEEv(ptr dead_on_unwind writable sret(%"class.testing::internal::ParamGenerator") align 8 %0, ptr noundef nonnull align 4 dereferenceable(76) %3)
  call void @llvm.lifetime.end.p0(i64 36, ptr %10) #3
  call void @llvm.lifetime.end.p0(i64 40, ptr %4) #3
  call void @llvm.lifetime.end.p0(i64 76, ptr %3) #3
  ret void
}